target datalayout = "e-m:e-p270:32:32-p271:32:32-p272:64:64-i64:64-i128:128-f80:128-n8:16:32:64-S128"
target triple = "x86_64-pc-linux-gnu"

%struct.Curl_cfilter = type { ptr, ptr, ptr, ptr, i32, i8 }
%struct.curltime = type { i64, i32 }
%struct.cf_hc_ctx = type { i32, ptr, %struct.curltime, i32, [2 x %struct.cf_hc_baller], i64, i32, i32 }
%struct.cf_hc_baller = type { ptr, ptr, i32, %struct.curltime, i32, i32, i8 }

; Function Attrs: nounwind uwtable
define internal i32 @cf_hc_baller_cntrl(ptr noundef %0, ptr noundef %1, i32 noundef %2, i32 noundef %3, ptr noundef %4) #0 {
  %6 = alloca i32, align 4
  %7 = alloca ptr, align 8
  %8 = alloca ptr, align 8
  %9 = alloca i32, align 4
  %10 = alloca i32, align 4
  %11 = alloca ptr, align 8
  store ptr %0, ptr %7, align 8, !tbaa !123
  store ptr %1, ptr %8, align 8, !tbaa !8
  store i32 %2, ptr %9, align 4, !tbaa !94
  store i32 %3, ptr %10, align 4, !tbaa !94
  store ptr %4, ptr %11, align 8, !tbaa !89
  %12 = load ptr, ptr %7, align 8, !tbaa !123
  %13 = getelementptr inbounds nuw %struct.cf_hc_baller, ptr %12, i32 0, i32 1
  %14 = load ptr, ptr %13, align 8, !tbaa !125
  %15 = icmp ne ptr %14, null
  br i1 %15, label %16, label %30

16:                                               ; preds = %5
  %17 = load ptr, ptr %7, align 8, !tbaa !123
  %18 = getelementptr inbounds nuw %struct.cf_hc_baller, ptr %17, i32 0, i32 2
  %19 = load i32, ptr %18, align 8, !tbaa !117
  %20 = icmp ne i32 %19, 0
  br i1 %20, label %30, label %21

21:                                               ; preds = %16
  %22 = load ptr, ptr %7, align 8, !tbaa !123
  %23 = getelementptr inbounds nuw %struct.cf_hc_baller, ptr %22, i32 0, i32 1
  %24 = load ptr, ptr %23, align 8, !tbaa !125
  %25 = load ptr, ptr %8, align 8, !tbaa !8
  %26 = load i32, ptr %9, align 4, !tbaa !94
  %27 = load i32, ptr %10, align 4, !tbaa !94
  %28 = load ptr, ptr %11, align 8, !tbaa !89
  %29 = call i32 @Curl_conn_cf_cntrl(ptr noundef %24, ptr noundef %25, i1 noundef zeroext false, i32 noundef %26, i32 noundef %27, ptr noundef %28)
  store i32 %29, ptr %6, align 4
  br label %31

30:                                               ; preds = %16, %5
  store i32 0, ptr %6, align 4
  br label %31

31:                                               ; preds = %30, %21
  %32 = load i32, ptr %6, align 4
  ret i32 %32
}

; Function Attrs: nounwind uwtable
define internal i32 @cf_hc_cntrl(ptr noundef %0, ptr noundef %1, i32 noundef %2, i32 noundef %3, ptr noundef %4) #0 {
  %6 = alloca ptr, align 8
  %7 = alloca ptr, align 8
  %8 = alloca i32, align 4
  %9 = alloca i32, align 4
  %10 = alloca ptr, align 8
  %11 = alloca ptr, align 8
  %12 = alloca i32, align 4
  %13 = alloca i64, align 8
  store ptr %0, ptr %6, align 8, !tbaa !3
  store ptr %1, ptr %7, align 8, !tbaa !8
  store i32 %2, ptr %8, align 4, !tbaa !94
  store i32 %3, ptr %9, align 4, !tbaa !94
  store ptr %4, ptr %10, align 8, !tbaa !89
  call void @llvm.lifetime.start.p0(i64 8, ptr %11) #5
  %14 = load ptr, ptr %6, align 8, !tbaa !3
  %15 = getelementptr inbounds nuw %struct.Curl_cfilter, ptr %14, i32 0, i32 2
  %16 = load ptr, ptr %15, align 8, !tbaa !10
  store ptr %16, ptr %11, align 8, !tbaa !15
  call void @llvm.lifetime.start.p0(i64 4, ptr %12) #5
  store i32 0, ptr %12, align 4, !tbaa !94
  call void @llvm.lifetime.start.p0(i64 8, ptr %13) #5
  %17 = load ptr, ptr %6, align 8, !tbaa !3
  %18 = getelementptr inbounds nuw %struct.Curl_cfilter, ptr %17, i32 0, i32 5
  %19 = load i8, ptr %18, align 4
  %20 = and i8 %19, 1
  %21 = zext i8 %20 to i32
  %22 = icmp ne i32 %21, 0
  br i1 %22, label %51, label %23

23:                                               ; preds = %5
  store i64 0, ptr %13, align 8, !tbaa !96
  br label %24

24:                                               ; preds = %47, %23
  %25 = load i64, ptr %13, align 8, !tbaa !96
  %26 = load ptr, ptr %11, align 8, !tbaa !15
  %27 = getelementptr inbounds nuw %struct.cf_hc_ctx, ptr %26, i32 0, i32 5
  %28 = load i64, ptr %27, align 8, !tbaa !99
  %29 = icmp ult i64 %25, %28
  br i1 %29, label %30, label %50

30:                                               ; preds = %24
  %31 = load ptr, ptr %11, align 8, !tbaa !15
  %32 = getelementptr inbounds nuw %struct.cf_hc_ctx, ptr %31, i32 0, i32 4
  %33 = load i64, ptr %13, align 8, !tbaa !96
  %34 = getelementptr inbounds nuw [2 x %struct.cf_hc_baller], ptr %32, i64 0, i64 %33
  %35 = load ptr, ptr %7, align 8, !tbaa !8
  %36 = load i32, ptr %8, align 4, !tbaa !94
  %37 = load i32, ptr %9, align 4, !tbaa !94
  %38 = load ptr, ptr %10, align 8, !tbaa !89
  %39 = call i32 @cf_hc_baller_cntrl(ptr noundef %34, ptr noundef %35, i32 noundef %36, i32 noundef %37, ptr noundef %38)
  store i32 %39, ptr %12, align 4, !tbaa !94
  %40 = load i32, ptr %12, align 4, !tbaa !94
  %41 = icmp ne i32 %40, 0
  br i1 %41, label %42, label %46

42:                                               ; preds = %30
  %43 = load i32, ptr %12, align 4, !tbaa !94
  %44 = icmp ne i32 %43, 81
  br i1 %44, label %45, label %46

45:                                               ; preds = %42
  br label %52

46:                                               ; preds = %42, %30
  br label %47

47:                                               ; preds = %46
  %48 = load i64, ptr %13, align 8, !tbaa !96
  %49 = add i64 %48, 1
  store i64 %49, ptr %13, align 8, !tbaa !96
  br label %24, !llvm.loop !136

50:                                               ; preds = %24
  store i32 0, ptr %12, align 4, !tbaa !94
  br label %51

51:                                               ; preds = %50, %5
  br label %52

52:                                               ; preds = %51, %45
  %53 = load i32, ptr %12, align 4, !tbaa !94
  call void @llvm.lifetime.end.p0(i64 8, ptr %13) #5
  call void @llvm.lifetime.end.p0(i64 4, ptr %12) #5
  call void @llvm.lifetime.end.p0(i64 8, ptr %11) #5
  ret i32 %53
}