; Function Attrs: nounwind uwtable
define internal range(i32 82, 81) i32 @cf_hc_cntrl(ptr noundef readonly captures(none) %0, ptr noundef %1, i32 noundef %2, i32 noundef %3, ptr noundef %4) #0 {
  %6 = getelementptr inbounds nuw i8, ptr %0, i64 16
  %7 = load ptr, ptr %6, align 8, !tbaa !3
  %8 = getelementptr inbounds nuw i8, ptr %0, i64 36
  %9 = load i8, ptr %8, align 4
  %10 = and i8 %9, 1
  %.not = icmp eq i8 %10, 0
  br i1 %.not, label %.preheader, label %.loopexit

.preheader:                                       ; preds = %5
  %11 = getelementptr inbounds nuw i8, ptr %7, i64 152
  %12 = load i64, ptr %11, align 8, !tbaa !84
  %.not19 = icmp eq i64 %12, 0
  br i1 %.not19, label %.loopexit, label %.lr.ph

.lr.ph:                                           ; preds = %.preheader
  %13 = getelementptr inbounds nuw i8, ptr %7, i64 40
  br label %14

14:                                               ; preds = %.lr.ph, %cf_hc_baller_cntrl.exit.thread
  %.017 = phi i64 [ 0, %.lr.ph ], [ %22, %cf_hc_baller_cntrl.exit.thread ]
  %15 = getelementptr inbounds nuw [2 x %struct.cf_hc_baller], ptr %13, i64 0, i64 %.017
  %16 = getelementptr inbounds nuw i8, ptr %15, i64 8
  %17 = load ptr, ptr %16, align 8, !tbaa !86
  %.not.i = icmp eq ptr %17, null
  br i1 %.not.i, label %cf_hc_baller_cntrl.exit.thread, label %18

18:                                               ; preds = %14
  %19 = getelementptr inbounds nuw i8, ptr %15, i64 16
  %20 = load i32, ptr %19, align 8, !tbaa !88
  %.not8.i = icmp eq i32 %20, 0
  br i1 %.not8.i, label %cf_hc_baller_cntrl.exit, label %cf_hc_baller_cntrl.exit.thread

cf_hc_baller_cntrl.exit:                          ; preds = %18
  %21 = tail call i32 @Curl_conn_cf_cntrl(ptr noundef nonnull %17, ptr noundef %1, i1 noundef zeroext false, i32 noundef %2, i32 noundef %3, ptr noundef %4) #4
  switch i32 %21, label %.loopexit [
    i32 81, label %cf_hc_baller_cntrl.exit.thread
    i32 0, label %cf_hc_baller_cntrl.exit.thread
  ]

cf_hc_baller_cntrl.exit.thread:                   ; preds = %14, %18, %cf_hc_baller_cntrl.exit, %cf_hc_baller_cntrl.exit
  %22 = add nuw i64 %.017, 1
  %23 = load i64, ptr %11, align 8, !tbaa !84
  %24 = icmp ult i64 %22, %23
  br i1 %24, label %14, label %.loopexit, !llvm.loop !130

.loopexit:                                        ; preds = %cf_hc_baller_cntrl.exit, %cf_hc_baller_cntrl.exit.thread, %.preheader, %5
  %.014 = phi i32 [ 0, %5 ], [ 0, %.preheader ], [ %21, %cf_hc_baller_cntrl.exit ], [ 0, %cf_hc_baller_cntrl.exit.thread ]
  ret i32 %.014
}